target datalayout = "e-m:e-p270:32:32-p271:32:32-p272:64:64-i64:64-i128:128-f80:128-n8:16:32:64-S128"
target triple = "x86_64-pc-linux-gnu"

; Function Attrs: nounwind uwtable
define internal void @filter_weak(ptr noundef %0, ptr noundef %1, i32 noundef %2) #1 {
  %4 = alloca ptr, align 8
  %5 = alloca ptr, align 8
  %6 = alloca i32, align 4
  %7 = alloca i32, align 4
  store ptr %0, ptr %4, align 8, !tbaa !46
  store ptr %1, ptr %5, align 8, !tbaa !46
  store i32 %2, ptr %6, align 4, !tbaa !36
  %8 = load ptr, ptr %5, align 8, !tbaa !46
  %9 = getelementptr inbounds i8, ptr %8, i64 0
  %10 = load i8, ptr %9, align 1, !tbaa !48
  %11 = load ptr, ptr %4, align 8, !tbaa !46
  %12 = getelementptr inbounds i8, ptr %11, i64 0
  store i8 %10, ptr %12, align 1, !tbaa !48
  call void @llvm.lifetime.start.p0(i64 4, ptr %7) #11
  store i32 1, ptr %7, align 4, !tbaa !36
  br label %13

13:                                               ; preds = %50, %3
  %14 = load i32, ptr %7, align 4, !tbaa !36
  %15 = load i32, ptr %6, align 4, !tbaa !36
  %16 = sub nsw i32 %15, 1
  %17 = icmp slt i32 %14, %16
  br i1 %17, label %19, label %18

18:                                               ; preds = %13
  call void @llvm.lifetime.end.p0(i64 4, ptr %7) #11
  br label %53

19:                                               ; preds = %13
  %20 = load ptr, ptr %5, align 8, !tbaa !46
  %21 = load i32, ptr %7, align 4, !tbaa !36
  %22 = sub nsw i32 %21, 1
  %23 = sext i32 %22 to i64
  %24 = getelementptr inbounds i8, ptr %20, i64 %23
  %25 = load i8, ptr %24, align 1, !tbaa !48
  %26 = zext i8 %25 to i32
  %27 = load ptr, ptr %5, align 8, !tbaa !46
  %28 = load i32, ptr %7, align 4, !tbaa !36
  %29 = sext i32 %28 to i64
  %30 = getelementptr inbounds i8, ptr %27, i64 %29
  %31 = load i8, ptr %30, align 1, !tbaa !48
  %32 = zext i8 %31 to i32
  %33 = mul nsw i32 2, %32
  %34 = add nsw i32 %26, %33
  %35 = load ptr, ptr %5, align 8, !tbaa !46
  %36 = load i32, ptr %7, align 4, !tbaa !36
  %37 = add nsw i32 %36, 1
  %38 = sext i32 %37 to i64
  %39 = getelementptr inbounds i8, ptr %35, i64 %38
  %40 = load i8, ptr %39, align 1, !tbaa !48
  %41 = zext i8 %40 to i32
  %42 = add nsw i32 %34, %41
  %43 = add nsw i32 %42, 2
  %44 = ashr i32 %43, 2
  %45 = trunc i32 %44 to i8
  %46 = load ptr, ptr %4, align 8, !tbaa !46
  %47 = load i32, ptr %7, align 4, !tbaa !36
  %48 = sext i32 %47 to i64
  %49 = getelementptr inbounds i8, ptr %46, i64 %48
  store i8 %45, ptr %49, align 1, !tbaa !48
  br label %50

50:                                               ; preds = %19
  %51 = load i32, ptr %7, align 4, !tbaa !36
  %52 = add nsw i32 %51, 1
  store i32 %52, ptr %7, align 4, !tbaa !36
  br label %13, !llvm.loop !236

53:                                               ; preds = %18
  %54 = load ptr, ptr %5, align 8, !tbaa !46
  %55 = load i32, ptr %6, align 4, !tbaa !36
  %56 = sub nsw i32 %55, 1
  %57 = sext i32 %56 to i64
  %58 = getelementptr inbounds i8, ptr %54, i64 %57
  %59 = load i8, ptr %58, align 1, !tbaa !48
  %60 = load ptr, ptr %4, align 8, !tbaa !46
  %61 = load i32, ptr %6, align 4, !tbaa !36
  %62 = sub nsw i32 %61, 1
  %63 = sext i32 %62 to i64
  %64 = getelementptr inbounds i8, ptr %60, i64 %63
  store i8 %59, ptr %64, align 1, !tbaa !48
  ret void
}