; Function Attrs: nofree norecurse nosync nounwind memory(argmem: readwrite) uwtable
define internal fastcc void @filter_weak(ptr noundef nonnull writeonly captures(none) initializes((0, 1)) %0, ptr noundef nonnull readonly captures(none) %1, i32 noundef range(i32 -2147483648, 67108880) %2) unnamed_addr #9 {
  %4 = load i8, ptr %1, align 1, !tbaa !42
  store i8 %4, ptr %0, align 1, !tbaa !42
  %5 = add i32 %2, -1
  %6 = icmp sgt i32 %2, 2
  br i1 %6, label %.lr.ph.preheader, label %._crit_edge

.lr.ph.preheader:                                 ; preds = %3
  %wide.trip.count = zext nneg i32 %5 to i64
  br label %.lr.ph

._crit_edge:                                      ; preds = %.lr.ph, %3
  %7 = sext i32 %5 to i64
  %8 = getelementptr inbounds i8, ptr %1, i64 %7
  %9 = load i8, ptr %8, align 1, !tbaa !42
  %10 = getelementptr inbounds i8, ptr %0, i64 %7
  store i8 %9, ptr %10, align 1, !tbaa !42
  ret void

.lr.ph:                                           ; preds = %.lr.ph.preheader, %.lr.ph
  %indvars.iv = phi i64 [ 1, %.lr.ph.preheader ], [ %indvars.iv.next, %.lr.ph ]
  %11 = getelementptr i8, ptr %1, i64 %indvars.iv
  %12 = getelementptr i8, ptr %11, i64 -1
  %13 = load i8, ptr %12, align 1, !tbaa !42
  %14 = zext i8 %13 to i16
  %15 = load i8, ptr %11, align 1, !tbaa !42
  %16 = zext i8 %15 to i16
  %17 = shl nuw nsw i16 %16, 1
  %indvars.iv.next = add nuw nsw i64 %indvars.iv, 1
  %18 = getelementptr inbounds nuw i8, ptr %1, i64 %indvars.iv.next
  %19 = load i8, ptr %18, align 1, !tbaa !42
  %20 = zext i8 %19 to i16
  %21 = add nuw nsw i16 %14, 2
  %22 = add nuw nsw i16 %21, %17
  %23 = add nuw nsw i16 %22, %20
  %24 = lshr i16 %23, 2
  %25 = trunc nuw i16 %24 to i8
  %26 = getelementptr inbounds nuw i8, ptr %0, i64 %indvars.iv
  store i8 %25, ptr %26, align 1, !tbaa !42
  %exitcond.not = icmp eq i64 %indvars.iv.next, %wide.trip.count
  br i1 %exitcond.not, label %._crit_edge, label %.lr.ph, !llvm.loop !207
}